Certificate:
    Data:
        Version: 3 (0x2)
        Serial Number: 4097 (0x1001)
    Signature Algorithm: sha256WithRSAEncryption
        Issuer: C=SW, ST=Kista, L=Kista, O=KTH, OU=KTH, CN=TP CA jianij@kth.se yucong@kth.se/emailAddress=jianij@kth.se yucong@kth.se
        Validity
            Not Before: Dec 14 15:11:27 2017 GMT
            Not After : Dec 14 15:11:27 2018 GMT
        Subject: C=SW, ST=Kista, O=KTH, OU=KTH, CN=TP Client jianij@kth.se yucong@kth.se/emailAddress=jianij@kth.se yucong@kth.se
        Subject Public Key Info:
            Public Key Algorithm: rsaEncryption
                Public-Key: (1024 bit)
                Modulus:
                    00:c2:94:07:84:43:bf:e0:59:14:73:7c:0a:a2:da:
                    b5:e1:34:52:da:d1:c7:41:a4:a7:d3:b8:cf:b6:30:
                    ff:93:30:24:cb:84:ba:bb:5e:1f:84:a5:3f:c7:80:
                    d6:32:28:20:71:ca:d8:80:ff:1c:be:1f:9f:e1:3a:
                    a3:99:84:56:1d:f5:78:73:e3:03:c3:72:2e:6a:43:
                    d3:4c:13:8d:1d:5d:e7:d1:8c:bb:33:f6:50:ac:6d:
                    e2:23:fc:9d:e1:e0:40:51:59:7c:4a:e5:41:6d:d4:
                    87:1f:5f:02:62:ce:51:36:9c:a9:4d:b7:5a:63:60:
                    97:f1:b0:be:56:55:a1:2d:df
                Exponent: 65537 (0x10001)
        X509v3 extensions:
            X509v3 Basic Constraints: 
                CA:FALSE
            X509v3 Key Usage: 
                Digital Signature, Non Repudiation, Key Encipherment
            Netscape Comment: 
                OpenSSL Generated Certificate
            X509v3 Subject Key Identifier: 
                2B:1E:13:C3:F9:6F:6C:B9:C8:BC:6D:42:B4:9C:02:51:8B:9B:3C:1B
            X509v3 Authority Key Identifier: 
                keyid:51:6C:90:AC:5F:D5:FD:E9:CC:F1:7A:9F:14:31:C4:C9:B6:D1:77:EF

    Signature Algorithm: sha256WithRSAEncryption
         75:4f:56:b9:2a:e6:f2:57:8e:c9:e8:c9:a8:e4:4f:3c:ea:92:
         45:70:a8:69:74:e2:85:28:3e:94:e8:f4:81:6d:53:0d:dd:7a:
         ea:25:a6:ba:cf:81:0c:a8:61:d7:23:90:14:bc:b4:b4:32:3c:
         45:12:ea:3c:24:80:49:67:74:45:6c:4f:0f:5d:3d:6a:0f:7e:
         6c:fd:a8:2a:13:32:10:90:ae:69:00:5a:76:f7:c5:01:04:f9:
         65:87:5b:ce:66:07:47:5f:d2:24:04:7a:f7:8b:ad:fa:44:b6:
         b1:81:2c:5d:40:2f:45:35:de:7c:1a:d1:42:51:ed:ba:0b:0a:
         64:b6:8e:d3:c7:cd:7a:53:89:41:a6:4a:05:fc:49:86:f4:e0:
         df:ee:79:c8:bd:3f:b8:e3:31:04:38:08:87:8f:b7:ed:f7:ea:
         46:43:7d:0a:a6:da:28:c4:9b:d7:f1:39:f4:a7:b0:85:81:cc:
         6a:b2:4f:9b:ec:25:2b:4c:75:f6:a6:1f:ed:e7:00:2c:26:77:
         e4:04:bb:bf:bb:96:ec:42:fa:32:df:6f:7f:4d:e4:ce:d8:d3:
         3b:25:71:e8:13:d1:ca:f0:47:c3:d4:fc:43:a7:70:7b:92:8b:
         23:f1:b8:fb:9e:a6:e3:5f:14:67:80:49:ec:6e:58:7a:21:e7:
         55:b8:ed:5d:11:04:ef:9a:be:04:b8:81:e4:4c:83:eb:b0:47:
         3f:45:5b:c3:e9:3b:5a:7d:c3:7a:16:06:70:71:5c:15:2d:53:
         fe:5c:38:94:2f:67:0a:1c:51:ae:3f:b0:7b:60:ee:7a:fa:fd:
         65:31:c5:ce:a8:7a:e0:59:46:12:77:e8:51:73:6b:80:b4:82:
         5c:2a:f5:07:8b:1d:0d:c5:91:76:49:90:42:0c:1e:77:ea:02:
         48:d1:56:5d:e3:0f:6c:7a:a3:56:a9:74:70:88:b9:74:fd:8e:
         2e:14:b0:99:b5:d9:2e:3a:9f:cd:43:3d:91:77:40:40:c8:e1:
         56:68:ef:ce:62:3a:07:73:fb:46:fa:fb:3c:fc:e1:0f:31:4f:
         fc:ec:6c:b7:74:cc:77:2d:20:3e:3b:01:73:6f:6f:7b:be:bc:
         02:d1:cd:17:6b:dc:a4:00:36:be:73:d9:2d:5f:93:cb:e6:91:
         ad:16:7a:a9:fe:93:08:03:35:2a:20:9f:c9:2a:01:18:e7:fb:
         5e:65:67:d1:94:ea:b8:a6:72:77:08:81:43:7c:4c:3f:62:7e:
         f9:05:33:38:9e:01:b6:2c:bb:8b:d1:99:70:ce:62:38:ff:83:
         0f:4e:c2:7c:cf:f4:24:32:6a:81:d4:a5:63:39:9c:4a:47:b2:
         12:99:4f:f8:ce:e8:de:ec
-----BEGIN CERTIFICATE-----
MIIEujCCAqKgAwIBAgICEAEwDQYJKoZIhvcNAQELBQAwgaExCzAJBgNVBAYTAlNX
MQ4wDAYDVQQIDAVLaXN0YTEOMAwGA1UEBwwFS2lzdGExDDAKBgNVBAoMA0tUSDEM
MAoGA1UECwwDS1RIMSowKAYDVQQDDCFUUCBDQSBqaWFuaWpAa3RoLnNlIHl1Y29u
Z0BrdGguc2UxKjAoBgkqhkiG9w0BCQEWG2ppYW5pakBrdGguc2UgeXVjb25nQGt0
aC5zZTAeFw0xNzEyMTQxNTExMjdaFw0xODEyMTQxNTExMjdaMIGVMQswCQYDVQQG
EwJTVzEOMAwGA1UECAwFS2lzdGExDDAKBgNVBAoMA0tUSDEMMAoGA1UECwwDS1RI
MS4wLAYDVQQDDCVUUCBDbGllbnQgamlhbmlqQGt0aC5zZSB5dWNvbmdAa3RoLnNl
MSowKAYJKoZIhvcNAQkBFhtqaWFuaWpAa3RoLnNlIHl1Y29uZ0BrdGguc2UwgZ8w
DQYJKoZIhvcNAQEBBQADgY0AMIGJAoGBAMKUB4RDv+BZFHN8CqLateE0UtrRx0Gk
p9O4z7Yw/5MwJMuEurteH4SlP8eA1jIoIHHK2ID/HL4fn+E6o5mEVh31eHPjA8Ny
LmpD00wTjR1d59GMuzP2UKxt4iP8neHgQFFZfErlQW3Uhx9fAmLOUTacqU23WmNg
l/GwvlZVoS3fAgMBAAGjgYkwgYYwCQYDVR0TBAIwADALBgNVHQ8EBAMCBeAwLAYJ
YIZIAYb4QgENBB8WHU9wZW5TU0wgR2VuZXJhdGVkIENlcnRpZmljYXRlMB0GA1Ud
DgQWBBQrHhPD+W9suci8bUK0nAJRi5s8GzAfBgNVHSMEGDAWgBRRbJCsX9X96czx
ep8UMcTJttF37zANBgkqhkiG9w0BAQsFAAOCAgEAdU9WuSrm8leOyejJqORPPOqS
RXCoaXTihSg+lOj0gW1TDd166iWmus+BDKhh1yOQFLy0tDI8RRLqPCSASWd0RWxP
D109ag9+bP2oKhMyEJCuaQBadvfFAQT5ZYdbzmYHR1/SJAR694ut+kS2sYEsXUAv
RTXefBrRQlHtugsKZLaO08fNelOJQaZKBfxJhvTg3+55yL0/uOMxBDgIh4+37ffq
RkN9CqbaKMSb1/E59KewhYHMarJPm+wlK0x19qYf7ecALCZ35AS7v7uW7EL6Mt9v
f03kztjTOyVx6BPRyvBHw9T8Q6dwe5KLI/G4+56m418UZ4BJ7G5YeiHnVbjtXREE
75q+BLiB5EyD67BHP0Vbw+k7Wn3DehYGcHFcFS1T/lw4lC9nChxRrj+we2Duevr9
ZTHFzqh64FlGEnfoUXNrgLSCXCr1B4sdDcWRdkmQQgwed+oCSNFWXeMPbHqjVql0
cIi5dP2OLhSwmbXZLjqfzUM9kXdAQMjhVmjvzmI6B3P7Rvr7PPzhDzFP/Oxst3TM
dy0gPjsBc29ve768AtHNF2vcpAA2vnPZLV+Ty+aRrRZ6qf6TCAM1KiCfySoBGOf7
XmVn0ZTquKZydwiBQ3xMP2J++QUzOJ4Btiy7i9GZcM5iOP+DD07CfM/0JDJqgdSl
YzmcSkeyEplP+M7o3uw=
-----END CERTIFICATE-----
