Certificate:
    Data:
        Version: 3 (0x2)
        Serial Number: 4096 (0x1000)
    Signature Algorithm: sha256WithRSAEncryption
        Issuer: C=SW, ST=Kista, L=Kista, O=KTH, OU=KTH, CN=TP CA jianij@kth.se yucong@kth.se/emailAddress=jianij@kth.se yucong@kth.se
        Validity
            Not Before: Dec 14 15:07:11 2017 GMT
            Not After : Dec 14 15:07:11 2018 GMT
        Subject: C=SW, ST=Kista, O=KTH, OU=KTH, CN=TP Server jianij@kth.se yucong@kth.se/emailAddress=jianij@kth.se yucong@kth.se
        Subject Public Key Info:
            Public Key Algorithm: rsaEncryption
                Public-Key: (1024 bit)
                Modulus:
                    00:c2:8d:62:9d:3f:c2:9f:5d:31:ec:6a:b3:14:0e:
                    29:99:d4:6b:9c:dd:11:12:0a:be:31:d3:46:7f:15:
                    bb:0a:a9:76:59:70:a7:25:8a:a0:01:ed:74:a6:ea:
                    ae:ac:68:d5:82:e1:52:a4:04:9c:ab:59:f8:c5:dc:
                    c9:2c:55:68:00:e4:ac:c8:1c:e3:fe:71:57:49:ff:
                    1a:11:d8:3f:9e:bf:1b:35:70:b0:9e:72:18:5f:bc:
                    a0:41:15:3b:2b:46:e0:13:e7:be:34:e8:79:f1:e1:
                    09:6a:a0:05:9c:8d:a7:3b:7a:92:77:6f:c5:dd:cb:
                    7b:d0:f1:32:a5:7d:af:81:fb
                Exponent: 65537 (0x10001)
        X509v3 extensions:
            X509v3 Basic Constraints: 
                CA:FALSE
            X509v3 Key Usage: 
                Digital Signature, Non Repudiation, Key Encipherment
            Netscape Comment: 
                OpenSSL Generated Certificate
            X509v3 Subject Key Identifier: 
                51:2A:A1:F1:A0:E2:56:90:FB:84:97:E9:26:06:36:94:3C:05:30:E5
            X509v3 Authority Key Identifier: 
                keyid:51:6C:90:AC:5F:D5:FD:E9:CC:F1:7A:9F:14:31:C4:C9:B6:D1:77:EF

    Signature Algorithm: sha256WithRSAEncryption
         26:15:42:a3:4b:22:50:02:3c:ff:15:47:8c:f5:a4:1f:82:64:
         2f:7a:5b:2a:3b:a2:37:07:1e:8b:9a:ce:66:9a:e0:15:98:6a:
         7f:e5:6e:9a:95:3d:54:61:e0:14:b8:9a:01:e3:65:e7:86:4e:
         86:f9:3a:b4:ce:ae:fd:88:50:79:67:45:68:e6:ae:c5:d7:46:
         31:a9:33:e4:31:e8:0f:03:23:68:40:ef:8e:ed:d3:15:4a:d4:
         04:74:d2:67:a5:a9:20:53:9f:d8:21:cd:90:f0:c6:d5:42:f3:
         b7:7a:da:8c:57:bc:d7:2c:9b:0e:c3:63:43:44:c6:a2:49:13:
         f0:b5:b0:bf:b5:a8:13:d7:eb:9b:87:21:5b:ef:bb:ca:49:5d:
         b2:2b:e4:cd:6d:61:90:25:c9:a7:81:cb:9a:b2:60:b6:ce:4f:
         6d:65:84:cc:34:63:dd:9f:da:14:be:ab:88:6c:f5:66:fe:82:
         79:95:26:82:86:2f:0b:10:3a:9a:3b:c5:2e:98:9a:11:b0:9a:
         1c:82:42:a0:6c:03:c9:31:ce:04:8d:76:64:3a:08:32:19:5f:
         3c:bf:57:47:42:52:48:63:0a:e2:8d:67:10:d2:c2:56:e4:79:
         d6:90:59:a1:e5:d0:ea:2b:e8:18:0a:b0:9d:98:ff:90:b6:e6:
         95:c8:4c:37:4b:68:25:cc:a6:9e:22:c7:23:26:6f:0b:e1:e6:
         0c:ed:be:1d:e4:b1:d0:02:b6:86:3f:98:3d:cd:a7:01:10:3f:
         9a:1f:86:ff:51:f1:33:41:4b:38:d7:83:c3:f9:90:36:a7:ef:
         db:78:13:30:5f:fb:0d:a8:64:60:72:1f:37:3f:bb:5c:6a:6a:
         b8:94:31:df:9c:98:6b:d2:34:45:88:f3:9c:9d:86:af:6d:e3:
         6b:bf:6b:41:ce:55:74:36:b6:79:8e:bf:2b:ae:96:b5:cf:fd:
         17:9a:41:0c:be:35:1f:ed:bf:91:b2:d5:f0:58:a7:16:6e:7b:
         f3:d1:26:2f:6d:85:30:45:42:31:b5:3f:ed:16:5b:ae:22:fe:
         34:fe:52:4b:0e:20:5f:f2:ee:08:46:6c:37:4e:13:37:2d:a7:
         61:19:2b:e7:2f:9f:28:0c:c7:57:78:6d:42:7b:0b:08:ab:88:
         b6:45:e9:34:c9:14:10:f1:9e:a8:c2:32:d8:d7:f7:80:58:b0:
         87:c7:8a:b6:1a:9a:c7:fe:8d:b9:4e:29:12:43:d2:a2:b1:d8:
         ee:3c:bd:a0:c8:a2:65:15:74:81:1e:53:8c:97:2b:9c:82:ea:
         ac:b2:bd:d4:d0:2b:5a:58:57:fb:ef:c9:ca:b6:7f:6c:88:de:
         a2:38:76:48:ee:60:6b:99
-----BEGIN CERTIFICATE-----
MIIEujCCAqKgAwIBAgICEAAwDQYJKoZIhvcNAQELBQAwgaExCzAJBgNVBAYTAlNX
MQ4wDAYDVQQIDAVLaXN0YTEOMAwGA1UEBwwFS2lzdGExDDAKBgNVBAoMA0tUSDEM
MAoGA1UECwwDS1RIMSowKAYDVQQDDCFUUCBDQSBqaWFuaWpAa3RoLnNlIHl1Y29u
Z0BrdGguc2UxKjAoBgkqhkiG9w0BCQEWG2ppYW5pakBrdGguc2UgeXVjb25nQGt0
aC5zZTAeFw0xNzEyMTQxNTA3MTFaFw0xODEyMTQxNTA3MTFaMIGVMQswCQYDVQQG
EwJTVzEOMAwGA1UECAwFS2lzdGExDDAKBgNVBAoMA0tUSDEMMAoGA1UECwwDS1RI
MS4wLAYDVQQDDCVUUCBTZXJ2ZXIgamlhbmlqQGt0aC5zZSB5dWNvbmdAa3RoLnNl
MSowKAYJKoZIhvcNAQkBFhtqaWFuaWpAa3RoLnNlIHl1Y29uZ0BrdGguc2UwgZ8w
DQYJKoZIhvcNAQEBBQADgY0AMIGJAoGBAMKNYp0/wp9dMexqsxQOKZnUa5zdERIK
vjHTRn8VuwqpdllwpyWKoAHtdKbqrqxo1YLhUqQEnKtZ+MXcySxVaADkrMgc4/5x
V0n/GhHYP56/GzVwsJ5yGF+8oEEVOytG4BPnvjToefHhCWqgBZyNpzt6kndvxd3L
e9DxMqV9r4H7AgMBAAGjgYkwgYYwCQYDVR0TBAIwADALBgNVHQ8EBAMCBeAwLAYJ
YIZIAYb4QgENBB8WHU9wZW5TU0wgR2VuZXJhdGVkIENlcnRpZmljYXRlMB0GA1Ud
DgQWBBRRKqHxoOJWkPuEl+kmBjaUPAUw5TAfBgNVHSMEGDAWgBRRbJCsX9X96czx
ep8UMcTJttF37zANBgkqhkiG9w0BAQsFAAOCAgEAJhVCo0siUAI8/xVHjPWkH4Jk
L3pbKjuiNwcei5rOZprgFZhqf+VumpU9VGHgFLiaAeNl54ZOhvk6tM6u/YhQeWdF
aOauxddGMakz5DHoDwMjaEDvju3TFUrUBHTSZ6WpIFOf2CHNkPDG1ULzt3rajFe8
1yybDsNjQ0TGokkT8LWwv7WoE9frm4chW++7ykldsivkzW1hkCXJp4HLmrJgts5P
bWWEzDRj3Z/aFL6riGz1Zv6CeZUmgoYvCxA6mjvFLpiaEbCaHIJCoGwDyTHOBI12
ZDoIMhlfPL9XR0JSSGMK4o1nENLCVuR51pBZoeXQ6ivoGAqwnZj/kLbmlchMN0to
JcymniLHIyZvC+HmDO2+HeSx0AK2hj+YPc2nARA/mh+G/1HxM0FLONeDw/mQNqfv
23gTMF/7DahkYHIfNz+7XGpquJQx35yYa9I0RYjznJ2Gr23ja79rQc5VdDa2eY6/
K66Wtc/9F5pBDL41H+2/kbLV8FinFm5789EmL22FMEVCMbU/7RZbriL+NP5SSw4g
X/LuCEZsN04TNy2nYRkr5y+fKAzHV3htQnsLCKuItkXpNMkUEPGeqMIy2Nf3gFiw
h8eKthqax/6NuU4pEkPSorHY7jy9oMiiZRV0gR5TjJcrnILqrLK91NArWlhX++/J
yrZ/bIjeojh2SO5ga5k=
-----END CERTIFICATE-----
